target datalayout = "e-m:e-p270:32:32-p271:32:32-p272:64:64-i64:64-i128:128-f80:128-n8:16:32:64-S128"
target triple = "x86_64-unknown-linux-gnu"

%"class.QuantLib::BlackCalculator" = type { ptr, double, double, double, double, double, double, double, double, double, double, double, double, double, double, double, double, double, double }

; Function Attrs: mustprogress nounwind uwtable
define linkonce_odr noundef double @_ZNSt14numeric_limitsIdE3maxEv() #6 comdat align 2 {
entry:
  ret double 0x7FEFFFFFFFFFFFFF
}

; Function Attrs: mustprogress nounwind uwtable
define linkonce_odr noundef double @_ZNSt14numeric_limitsIdE7epsilonEv() #6 comdat align 2 {
entry:
  ret double 0x3CB0000000000000
}

; Function Attrs: mustprogress nounwind uwtable
define noundef double @_ZNK8QuantLib15BlackCalculator5valueEv(ptr noundef nonnull align 8 dereferenceable(152) %this) #6 align 2 {
entry:
  %this.addr = alloca ptr, align 8
  %result = alloca double, align 8
  store ptr %this, ptr %this.addr, align 8, !tbaa !3
  %this1 = load ptr, ptr %this.addr, align 8
  call void @llvm.lifetime.start.p0(i64 8, ptr %result) #19
  %discount_ = getelementptr inbounds nuw %"class.QuantLib::BlackCalculator", ptr %this1, i32 0, i32 4
  %0 = load double, ptr %discount_, align 8, !tbaa !15
  %forward_ = getelementptr inbounds nuw %"class.QuantLib::BlackCalculator", ptr %this1, i32 0, i32 2
  %1 = load double, ptr %forward_, align 8, !tbaa !13
  %alpha_ = getelementptr inbounds nuw %"class.QuantLib::BlackCalculator", ptr %this1, i32 0, i32 8
  %2 = load double, ptr %alpha_, align 8, !tbaa !36
  %x_ = getelementptr inbounds nuw %"class.QuantLib::BlackCalculator", ptr %this1, i32 0, i32 16
  %3 = load double, ptr %x_, align 8, !tbaa !33
  %beta_ = getelementptr inbounds nuw %"class.QuantLib::BlackCalculator", ptr %this1, i32 0, i32 9
  %4 = load double, ptr %beta_, align 8, !tbaa !38
  %mul2 = fmul double %3, %4
  %5 = call double @llvm.fmuladd.f64(double %1, double %2, double %mul2)
  %mul = fmul double %0, %5
  store double %mul, ptr %result, align 8, !tbaa !9
  %6 = load double, ptr %result, align 8, !tbaa !9
  call void @llvm.lifetime.end.p0(i64 8, ptr %result) #19
  ret double %6
}

; Function Attrs: mustprogress uwtable
define noundef double @_ZNK8QuantLib15BlackCalculator10elasticityEd(ptr noundef nonnull align 8 dereferenceable(152) %this, double noundef %spot) unnamed_addr #4 align 2 {
entry:
  %retval = alloca double, align 8
  %this.addr = alloca ptr, align 8
  %spot.addr = alloca double, align 8
  %val = alloca double, align 8
  %del = alloca double, align 8
  %cleanup.dest.slot = alloca i32, align 4
  store ptr %this, ptr %this.addr, align 8, !tbaa !3
  store double %spot, ptr %spot.addr, align 8, !tbaa !9
  %this1 = load ptr, ptr %this.addr, align 8
  call void @llvm.lifetime.start.p0(i64 8, ptr %val) #19
  %call = call noundef double @_ZNK8QuantLib15BlackCalculator5valueEv(ptr noundef nonnull align 8 dereferenceable(152) %this1)
  store double %call, ptr %val, align 8, !tbaa !9
  call void @llvm.lifetime.start.p0(i64 8, ptr %del) #19
  %0 = load double, ptr %spot.addr, align 8, !tbaa !9
  %vtable = load ptr, ptr %this1, align 8, !tbaa !7
  %vfn = getelementptr inbounds ptr, ptr %vtable, i64 2
  %1 = load ptr, ptr %vfn, align 8
  %call2 = call noundef double %1(ptr noundef nonnull align 8 dereferenceable(152) %this1, double noundef %0)
  store double %call2, ptr %del, align 8, !tbaa !9
  %2 = load double, ptr %val, align 8, !tbaa !9
  %call3 = call noundef double @_ZNSt14numeric_limitsIdE7epsilonEv() #19
  %cmp = fcmp ogt double %2, %call3
  br i1 %cmp, label %if.then, label %if.else

if.then:                                          ; preds = %entry
  %3 = load double, ptr %del, align 8, !tbaa !9
  %4 = load double, ptr %val, align 8, !tbaa !9
  %div = fdiv double %3, %4
  %5 = load double, ptr %spot.addr, align 8, !tbaa !9
  %mul = fmul double %div, %5
  store double %mul, ptr %retval, align 8
  store i32 1, ptr %cleanup.dest.slot, align 4
  br label %cleanup

if.else:                                          ; preds = %entry
  %6 = load double, ptr %del, align 8, !tbaa !9
  %7 = call double @llvm.fabs.f64(double %6)
  %call4 = call noundef double @_ZNSt14numeric_limitsIdE7epsilonEv() #19
  %cmp5 = fcmp olt double %7, %call4
  br i1 %cmp5, label %if.then6, label %if.else7

if.then6:                                         ; preds = %if.else
  store double 0.000000e+00, ptr %retval, align 8
  store i32 1, ptr %cleanup.dest.slot, align 4
  br label %cleanup

if.else7:                                         ; preds = %if.else
  %8 = load double, ptr %del, align 8, !tbaa !9
  %cmp8 = fcmp ogt double %8, 0.000000e+00
  br i1 %cmp8, label %if.then9, label %if.else11

if.then9:                                         ; preds = %if.else7
  %call10 = call noundef double @_ZNSt14numeric_limitsIdE3maxEv() #19
  store double %call10, ptr %retval, align 8
  store i32 1, ptr %cleanup.dest.slot, align 4
  br label %cleanup

if.else11:                                        ; preds = %if.else7
  %call12 = call noundef double @_ZNSt14numeric_limitsIdE3maxEv() #19
  %fneg = fneg double %call12
  store double %fneg, ptr %retval, align 8
  store i32 1, ptr %cleanup.dest.slot, align 4
  br label %cleanup

cleanup:                                          ; preds = %if.else11, %if.then9, %if.then6, %if.then
  call void @llvm.lifetime.end.p0(i64 8, ptr %del) #19
  call void @llvm.lifetime.end.p0(i64 8, ptr %val) #19
  %9 = load double, ptr %retval, align 8
  ret double %9
}