; Function Attrs: mustprogress uwtable
define noundef double @_ZNK8QuantLib15BlackCalculator10elasticityEd(ptr noundef nonnull align 8 dereferenceable(152) %this, double noundef %spot) unnamed_addr #3 align 2 {
entry:
  %discount_.i = getelementptr inbounds nuw i8, ptr %this, i64 32
  %0 = load double, ptr %discount_.i, align 8, !tbaa !31
  %forward_.i = getelementptr inbounds nuw i8, ptr %this, i64 16
  %1 = load double, ptr %forward_.i, align 8, !tbaa !29
  %alpha_.i = getelementptr inbounds nuw i8, ptr %this, i64 64
  %2 = load double, ptr %alpha_.i, align 8, !tbaa !55
  %x_.i = getelementptr inbounds nuw i8, ptr %this, i64 128
  %3 = load double, ptr %x_.i, align 8, !tbaa !51
  %beta_.i = getelementptr inbounds nuw i8, ptr %this, i64 72
  %4 = load double, ptr %beta_.i, align 8, !tbaa !57
  %mul2.i = fmul double %3, %4
  %5 = tail call double @llvm.fmuladd.f64(double %1, double %2, double %mul2.i)
  %mul.i = fmul double %0, %5
  %vtable = load ptr, ptr %this, align 8, !tbaa !14
  %vfn = getelementptr inbounds i8, ptr %vtable, i64 16
  %6 = load ptr, ptr %vfn, align 8
  %call2 = tail call noundef double %6(ptr noundef nonnull align 8 dereferenceable(152) %this, double noundef %spot)
  %cmp = fcmp ogt double %mul.i, 0x3CB0000000000000
  br i1 %cmp, label %if.then, label %if.else

if.then:                                          ; preds = %entry
  %div = fdiv double %call2, %mul.i
  %mul = fmul double %spot, %div
  br label %cleanup

if.else:                                          ; preds = %entry
  %7 = tail call double @llvm.fabs.f64(double %call2)
  %cmp5 = fcmp olt double %7, 0x3CB0000000000000
  br i1 %cmp5, label %cleanup, label %if.else7

if.else7:                                         ; preds = %if.else
  %cmp8 = fcmp ogt double %call2, 0.000000e+00
  br i1 %cmp8, label %cleanup, label %if.else11

if.else11:                                        ; preds = %if.else7
  br label %cleanup

cleanup:                                          ; preds = %if.else7, %if.else, %if.else11, %if.then
  %retval.0 = phi double [ %mul, %if.then ], [ 0xFFEFFFFFFFFFFFFF, %if.else11 ], [ 0.000000e+00, %if.else ], [ 0x7FEFFFFFFFFFFFFF, %if.else7 ]
  ret double %retval.0
}